target datalayout = "e-m:e-p270:32:32-p271:32:32-p272:64:64-i64:64-i128:128-f80:128-n8:16:32:64-S128"
target triple = "x86_64-pc-linux-gnu"

%struct.object_id = type { [32 x i8], i32 }

@the_repository = external global ptr, align 8
@filter = internal global i32 -1, align 4
@def = internal global ptr null, align 8
@abbrev = internal global i32 0, align 4
@symbolic = internal global i32 0, align 4
@abbrev_ref = internal global i32 0, align 4
@abbrev_ref_strict = internal global i32 0, align 4
@.str.147 = private unnamed_addr constant [26 x i8] c"refname '%s' is ambiguous\00", align 1

; Function Attrs: inlinehint nounwind uwtable
define internal i32 @const_error() #6 {
  ret i32 -1
}

; Function Attrs: nounwind uwtable
define internal void @show_rev(i32 noundef %0, ptr noundef %1, ptr noundef %2) #0 {
  %4 = alloca i32, align 4
  %5 = alloca ptr, align 8
  %6 = alloca ptr, align 8
  %7 = alloca %struct.object_id, align 4
  %8 = alloca ptr, align 8
  %9 = alloca ptr, align 8
  store i32 %0, ptr %4, align 4, !tbaa !4
  store ptr %1, ptr %5, align 8, !tbaa !70
  store ptr %2, ptr %6, align 8, !tbaa !11
  %10 = load i32, ptr @filter, align 4, !tbaa !4
  %11 = and i32 %10, 1
  %12 = icmp ne i32 %11, 0
  br i1 %12, label %14, label %13

13:                                               ; preds = %3
  br label %74

14:                                               ; preds = %3
  store ptr null, ptr @def, align 8, !tbaa !11
  %15 = load i32, ptr @symbolic, align 4, !tbaa !4
  %16 = icmp ne i32 %15, 0
  br i1 %16, label %20, label %17

17:                                               ; preds = %14
  %18 = load i32, ptr @abbrev_ref, align 4, !tbaa !4
  %19 = icmp ne i32 %18, 0
  br i1 %19, label %20, label %60

20:                                               ; preds = %17, %14
  %21 = load ptr, ptr %6, align 8, !tbaa !11
  %22 = icmp ne ptr %21, null
  br i1 %22, label %23, label %60

23:                                               ; preds = %20
  %24 = load i32, ptr @symbolic, align 4, !tbaa !4
  %25 = icmp eq i32 %24, 2
  br i1 %25, label %29, label %26

26:                                               ; preds = %23
  %27 = load i32, ptr @abbrev_ref, align 4, !tbaa !4
  %28 = icmp ne i32 %27, 0
  br i1 %28, label %29, label %56

29:                                               ; preds = %26, %23
  call void @llvm.lifetime.start.p0(i64 36, ptr %7) #11
  call void @llvm.lifetime.start.p0(i64 8, ptr %8) #11
  %30 = load ptr, ptr @the_repository, align 8, !tbaa !13
  %31 = load ptr, ptr %6, align 8, !tbaa !11
  %32 = load ptr, ptr %6, align 8, !tbaa !11
  %33 = call i64 @strlen(ptr noundef %32) #12
  %34 = trunc i64 %33 to i32
  %35 = call i32 @repo_dwim_ref(ptr noundef %30, ptr noundef %31, i32 noundef %34, ptr noundef %7, ptr noundef %8, i32 noundef 0)
  switch i32 %35, label %50 [
    i32 0, label %54
    i32 1, label %36
  ]

36:                                               ; preds = %29
  %37 = load i32, ptr @abbrev_ref, align 4, !tbaa !4
  %38 = icmp ne i32 %37, 0
  br i1 %38, label %39, label %47

39:                                               ; preds = %36
  call void @llvm.lifetime.start.p0(i64 8, ptr %9) #11
  %40 = load ptr, ptr %8, align 8, !tbaa !11
  store ptr %40, ptr %9, align 8, !tbaa !11
  %41 = load ptr, ptr @the_repository, align 8, !tbaa !13
  %42 = call ptr @get_main_ref_store(ptr noundef %41)
  %43 = load ptr, ptr %8, align 8, !tbaa !11
  %44 = load i32, ptr @abbrev_ref_strict, align 4, !tbaa !4
  %45 = call ptr @refs_shorten_unambiguous_ref(ptr noundef %42, ptr noundef %43, i32 noundef %44)
  store ptr %45, ptr %8, align 8, !tbaa !11
  %46 = load ptr, ptr %9, align 8, !tbaa !11
  call void @free(ptr noundef %46) #11
  call void @llvm.lifetime.end.p0(i64 8, ptr %9) #11
  br label %47

47:                                               ; preds = %39, %36
  %48 = load i32, ptr %4, align 4, !tbaa !4
  %49 = load ptr, ptr %8, align 8, !tbaa !11
  call void @show_with_type(i32 noundef %48, ptr noundef %49)
  br label %54

50:                                               ; preds = %29
  %51 = load ptr, ptr %6, align 8, !tbaa !11
  %52 = call i32 (ptr, ...) @error(ptr noundef @.str.147, ptr noundef %51)
  %53 = call i32 @const_error()
  br label %54

54:                                               ; preds = %50, %47, %29
  %55 = load ptr, ptr %8, align 8, !tbaa !11
  call void @free(ptr noundef %55) #11
  call void @llvm.lifetime.end.p0(i64 8, ptr %8) #11
  call void @llvm.lifetime.end.p0(i64 36, ptr %7) #11
  br label %59

56:                                               ; preds = %26
  %57 = load i32, ptr %4, align 4, !tbaa !4
  %58 = load ptr, ptr %6, align 8, !tbaa !11
  call void @show_with_type(i32 noundef %57, ptr noundef %58)
  br label %59

59:                                               ; preds = %56, %54
  br label %74

60:                                               ; preds = %20, %17
  %61 = load i32, ptr @abbrev, align 4, !tbaa !4
  %62 = icmp ne i32 %61, 0
  br i1 %62, label %63, label %69

63:                                               ; preds = %60
  %64 = load i32, ptr %4, align 4, !tbaa !4
  %65 = load ptr, ptr @the_repository, align 8, !tbaa !13
  %66 = load ptr, ptr %5, align 8, !tbaa !70
  %67 = load i32, ptr @abbrev, align 4, !tbaa !4
  %68 = call ptr @repo_find_unique_abbrev(ptr noundef %65, ptr noundef %66, i32 noundef %67)
  call void @show_with_type(i32 noundef %64, ptr noundef %68)
  br label %73

69:                                               ; preds = %60
  %70 = load i32, ptr %4, align 4, !tbaa !4
  %71 = load ptr, ptr %5, align 8, !tbaa !70
  %72 = call ptr @oid_to_hex(ptr noundef %71)
  call void @show_with_type(i32 noundef %70, ptr noundef %72)
  br label %73

73:                                               ; preds = %69, %63
  br label %74

74:                                               ; preds = %13, %73, %59
  ret void
}