; Function Attrs: nounwind uwtable
define internal fastcc void @show_rev(i32 noundef range(i32 0, 2) %0, ptr noundef %1, ptr noundef %2) unnamed_addr #0 {
  %4 = alloca %struct.object_id, align 4
  %5 = alloca ptr, align 8
  %6 = load i32, ptr @filter, align 4, !tbaa !9
  %7 = and i32 %6, 1
  %.not = icmp eq i32 %7, 0
  br i1 %.not, label %41, label %8

8:                                                ; preds = %3
  store ptr null, ptr @def, align 8, !tbaa !4
  %9 = load i32, ptr @symbolic, align 4, !tbaa !9
  %10 = icmp ne i32 %9, 0
  %.b = load i1, ptr @abbrev_ref, align 4
  %or.cond = select i1 %10, i1 true, i1 %.b
  %11 = icmp ne ptr %2, null
  %or.cond3 = and i1 %11, %or.cond
  br i1 %or.cond3, label %12, label %34

12:                                               ; preds = %8
  %13 = icmp eq i32 %9, 2
  %or.cond5 = select i1 %13, i1 true, i1 %.b
  br i1 %or.cond5, label %14, label %33

14:                                               ; preds = %12
  call void @llvm.lifetime.start.p0(i64 36, ptr nonnull %4) #19
  call void @llvm.lifetime.start.p0(i64 8, ptr nonnull %5) #19
  %15 = load ptr, ptr @the_repository, align 8, !tbaa !39
  %16 = tail call i64 @strlen(ptr noundef nonnull dereferenceable(1) %2) #20
  %17 = trunc i64 %16 to i32
  %18 = call i32 @repo_dwim_ref(ptr noundef %15, ptr noundef nonnull %2, i32 noundef %17, ptr noundef nonnull %4, ptr noundef nonnull %5, i32 noundef 0) #19
  switch i32 %18, label %29 [
    i32 0, label %31
    i32 1, label %19
  ]

19:                                               ; preds = %14
  %.b17 = load i1, ptr @abbrev_ref, align 4
  br i1 %.b17, label %20, label %27

20:                                               ; preds = %19
  %21 = load ptr, ptr %5, align 8, !tbaa !4
  %22 = load ptr, ptr @the_repository, align 8, !tbaa !39
  %23 = call ptr @get_main_ref_store(ptr noundef %22) #19
  %24 = load ptr, ptr %5, align 8, !tbaa !4
  %25 = load i32, ptr @abbrev_ref_strict, align 4, !tbaa !9
  %26 = call ptr @refs_shorten_unambiguous_ref(ptr noundef %23, ptr noundef %24, i32 noundef %25) #19
  store ptr %26, ptr %5, align 8, !tbaa !4
  call void @free(ptr noundef %21) #19
  br label %27

27:                                               ; preds = %20, %19
  %28 = load ptr, ptr %5, align 8, !tbaa !4
  call fastcc void @show_with_type(i32 noundef %0, ptr noundef %28)
  br label %31

29:                                               ; preds = %14
  %30 = call i32 (ptr, ...) @error(ptr noundef nonnull @.str.147, ptr noundef nonnull %2) #19
  br label %31

31:                                               ; preds = %29, %27, %14
  %32 = load ptr, ptr %5, align 8, !tbaa !4
  call void @free(ptr noundef %32) #19
  call void @llvm.lifetime.end.p0(i64 8, ptr nonnull %5) #19
  call void @llvm.lifetime.end.p0(i64 36, ptr nonnull %4) #19
  br label %41

33:                                               ; preds = %12
  tail call fastcc void @show_with_type(i32 noundef %0, ptr noundef nonnull %2)
  br label %41

34:                                               ; preds = %8
  %35 = load i32, ptr @abbrev, align 4, !tbaa !9
  %.not18 = icmp eq i32 %35, 0
  br i1 %.not18, label %39, label %36

36:                                               ; preds = %34
  %37 = load ptr, ptr @the_repository, align 8, !tbaa !39
  %38 = tail call ptr @repo_find_unique_abbrev(ptr noundef %37, ptr noundef %1, i32 noundef %35) #19
  tail call fastcc void @show_with_type(i32 noundef %0, ptr noundef %38)
  br label %41

39:                                               ; preds = %34
  %40 = tail call ptr @oid_to_hex(ptr noundef %1) #19
  tail call fastcc void @show_with_type(i32 noundef %0, ptr noundef %40)
  br label %41

41:                                               ; preds = %36, %39, %31, %33, %3
  ret void
}